TN:
SF:/usr/include/c++/11/bits/stl_uninitialized.h
FN:1018,_ZSt14__relocate_a_1IPNSt7__cxx114listIiSaIiEEES4_SaIS3_EET0_T_S7_S6_RT1_
FNDA:14,_ZSt14__relocate_a_1IPNSt7__cxx114listIiSaIiEEES4_SaIS3_EET0_T_S7_S6_RT1_
DA:578,65
DA:1009,8
DA:1010,14
DA:1011,6
DA:1012,8
DA:1018,14
DA:1031,14
DA:1034,14
DA:1046,14
end_of_record
SF:/usr/include/c++/11/ostream
DA:113,37
end_of_record
SF:/usr/include/c++/11/ext/new_allocator.h
FN:103,_ZN9__gnu_cxx13new_allocatorIPiE8allocateEmPKv
FNDA:2,_ZN9__gnu_cxx13new_allocatorIPiE8allocateEmPKv
FN:103,_ZN9__gnu_cxx13new_allocatorISt10_List_nodeIiEE8allocateEmPKv
FNDA:71,_ZN9__gnu_cxx13new_allocatorISt10_List_nodeIiEE8allocateEmPKv
FN:103,_ZN9__gnu_cxx13new_allocatorIiE8allocateEmPKv
FNDA:10,_ZN9__gnu_cxx13new_allocatorIiE8allocateEmPKv
FN:103,_ZN9__gnu_cxx13new_allocatorINSt7__cxx114listIiSaIiEEEE8allocateEmPKv
FNDA:14,_ZN9__gnu_cxx13new_allocatorINSt7__cxx114listIiSaIiEEEE8allocateEmPKv
DA:103,2
DA:111,2
DA:115,0
DA:116,0
DA:117,0
DA:127,2
DA:103,71
DA:111,71
DA:115,0
DA:116,0
DA:117,0
DA:127,71
DA:103,10
DA:111,10
DA:115,0
DA:116,0
DA:117,0
DA:127,10
DA:103,14
DA:111,14
DA:115,0
DA:116,0
DA:117,0
DA:127,14
DA:145,26
DA:162,91
DA:168,81
end_of_record
SF:/usr/include/c++/11/bits/alloc_traits.h
DA:464,97
DA:496,22
DA:539,10
end_of_record
SF:/usr/include/c++/11/bits/stl_stack.h
FN:162,_ZNSt5stackIiSt5dequeIiSaIiEEEC2IS2_vEEv
FNDA:2,_ZNSt5stackIiSt5dequeIiSaIiEEEC2IS2_vEEv
DA:99,2
DA:162,2
DA:163,2
DA:215,10
DA:240,8
DA:245,2
DA:275,10
DA:276,10
end_of_record
SF:/usr/include/c++/11/bits/deque.tcc
FN:164,_ZNSt5dequeIiSaIiEE12emplace_backIJiEEERiDpOT_
FNDA:2,_ZNSt5dequeIiSaIiEE12emplace_backIJiEEERiDpOT_
FN:484,_ZNSt5dequeIiSaIiEE16_M_push_back_auxIJiEEEvDpOT_
FNDA:0,_ZNSt5dequeIiSaIiEE16_M_push_back_auxIJiEEEvDpOT_
FN:484,_ZNSt5dequeIiSaIiEE16_M_push_back_auxIJRKiEEEvDpOT_
FNDA:0,_ZNSt5dequeIiSaIiEE16_M_push_back_auxIJRKiEEEvDpOT_
FN:560,_ZNSt5dequeIiSaIiEE15_M_pop_back_auxEv
FNDA:0,_ZNSt5dequeIiSaIiEE15_M_pop_back_auxEv
FN:931,_ZNSt5dequeIiSaIiEE17_M_reallocate_mapEmb
FNDA:0,_ZNSt5dequeIiSaIiEE17_M_reallocate_mapEmb
DA:164,2
DA:167,2
DA:168,2
DA:173,2
DA:176,0
DA:178,2
DA:484,0
DA:492,0
DA:493,0
DA:496,0
DA:497,0
DA:501,0
DA:507,0
DA:509,0
DA:516,0
DA:484,0
DA:492,0
DA:493,0
DA:496,0
DA:497,0
DA:501,0
DA:507,0
DA:509,0
DA:516,0
DA:560,0
DA:563,0
DA:564,0
DA:565,0
DA:568,0
DA:931,0
DA:934,0
DA:935,0
DA:936,0
DA:939,0
DA:941,0
DA:942,0
DA:943,0
DA:944,0
DA:945,0
DA:949,0
DA:955,0
DA:956,0
DA:960,0
DA:961,0
DA:962,0
DA:963,0
DA:965,0
DA:967,0
DA:968,0
DA:972,0
DA:973,0
end_of_record
SF:/usr/include/c++/11/bits/stl_algobase.h
FN:611,_ZSt4copyIPPiS1_ET0_T_S3_S2_
FNDA:0,_ZSt4copyIPPiS1_ET0_T_S3_S2_
FN:731,_ZNSt20__copy_move_backwardILb0ELb1ESt26random_access_iterator_tagE13__copy_move_bIPiEEPT_PKS4_S7_S5_
FNDA:0,_ZNSt20__copy_move_backwardILb0ELb1ESt26random_access_iterator_tagE13__copy_move_bIPiEEPT_PKS4_S7_S5_
DA:259,24
DA:260,16
DA:429,0
DA:430,0
DA:431,0
DA:432,0
DA:611,0
DA:620,0
DA:731,0
DA:740,0
DA:741,0
DA:742,0
DA:743,0
DA:760,0
DA:859,0
end_of_record
SF:/usr/include/c++/11/bits/stl_list.h
FN:114,_ZNSt8__detail17_List_node_headerC2EOS0_
FNDA:0,_ZNSt8__detail17_List_node_headerC2EOS0_
FN:633,_ZNSt7__cxx114listIiSaIiEE14_M_create_nodeIJRKiEEEPSt10_List_nodeIiEDpOT_
FNDA:71,_ZNSt7__cxx114listIiSaIiEE14_M_create_nodeIJRKiEEEPSt10_List_nodeIiEDpOT_
FN:1554,_ZNSt7__cxx114listIiSaIiEE6spliceESt20_List_const_iteratorIiEOS2_S4_
FNDA:8,_ZNSt7__cxx114listIiSaIiEE6spliceESt20_List_const_iteratorIiEOS2_S4_
FN:1910,_ZNSt7__cxx114listIiSaIiEE9_M_insertIJRKiEEEvSt14_List_iteratorIiEDpOT_
FNDA:71,_ZNSt7__cxx114listIiSaIiEE9_M_insertIJRKiEEEvSt14_List_iteratorIiEDpOT_
FN:1920,_ZNSt7__cxx114listIiSaIiEE8_M_eraseESt14_List_iteratorIiE
FNDA:8,_ZNSt7__cxx114listIiSaIiEE8_M_eraseESt14_List_iteratorIiE
DA:111,59
DA:114,0
DA:115,0
DA:117,0
DA:120,0
DA:121,0
DA:124,0
DA:127,0
DA:152,59
DA:154,51
DA:156,0
DA:159,0
DA:220,14
DA:306,66
DA:307,66
DA:390,0
DA:405,45
DA:409,79
DA:411,8
DA:443,71
DA:447,63
DA:500,8
DA:633,71
DA:641,71
DA:642,71
DA:828,51
DA:947,24
DA:956,35
DA:965,8
DA:974,35
DA:1199,8
DA:1213,71
DA:1554,8
DA:1571,8
DA:1597,8
DA:1896,8
DA:1910,71
DA:1912,71
DA:1913,71
DA:1915,71
DA:1920,8
DA:1923,8
DA:1932,8
end_of_record
SF:/usr/include/c++/11/iostream
end_of_record
SF:/usr/include/c++/11/bits/allocated_ptr.h
FN:71,_ZNSt15__allocated_ptrISaISt10_List_nodeIiEEED2Ev
FNDA:71,_ZNSt15__allocated_ptrISaISt10_List_nodeIiEEED2Ev
DA:53,71
DA:54,71
DA:71,71
DA:73,71
DA:75,71
DA:81,71
end_of_record
SF:/usr/include/c++/11/bits/stl_construct.h
DA:162,65
end_of_record
SF:/usr/include/c++/11/bits/vector.tcc
FN:426,_ZNSt6vectorIiSaIiEE17_M_realloc_insertIJRKiEEEvN9__gnu_cxx17__normal_iteratorIPiS1_EEDpOT_
FNDA:8,_ZNSt6vectorIiSaIiEE17_M_realloc_insertIJRKiEEEvN9__gnu_cxx17__normal_iteratorIPiS1_EEDpOT_
FN:611,_ZNSt6vectorINSt7__cxx114listIiSaIiEEESaIS3_EE17_M_default_appendEm
FNDA:14,_ZNSt6vectorINSt7__cxx114listIiSaIiEEESaIS3_EE17_M_default_appendEm
DA:426,8
DA:436,8
DA:437,8
DA:438,8
DA:449,8
DA:450,8
DA:464,8
DA:501,8
DA:502,8
DA:503,8
DA:504,8
DA:505,8
DA:611,14
DA:614,14
DA:617,14
DA:618,14
DA:620,14
DA:621,0
DA:623,14
DA:626,0
DA:634,14
DA:640,14
DA:648,14
DA:676,14
DA:677,14
DA:678,14
DA:679,14
DA:680,14
DA:683,14
end_of_record
SF:/usr/include/c++/11/bits/stl_iterator.h
DA:1028,2
DA:1054,10
DA:1055,10
DA:1271,8
end_of_record
SF:/usr/include/c++/11/bits/list.tcc
FN:66,_ZNSt7__cxx1110_List_baseIiSaIiEE8_M_clearEv
FNDA:59,_ZNSt7__cxx1110_List_baseIiSaIiEE8_M_clearEv
FN:331,_ZNSt7__cxx114listIiSaIiEE6removeERKi
FNDA:8,_ZNSt7__cxx114listIiSaIiEE6removeERKi
DA:66,59
DA:70,59
DA:71,122
DA:74,63
DA:83,59
DA:331,8
DA:340,22
DA:344,14
DA:349,8
DA:361,8
end_of_record
SF:/usr/include/c++/11/bits/stl_vector.h
FN:333,_ZNSt12_Vector_baseIiSaIiEED2Ev
FNDA:2,_ZNSt12_Vector_baseIiSaIiEED2Ev
FN:333,_ZNSt12_Vector_baseINSt7__cxx114listIiSaIiEEESaIS3_EED2Ev
FNDA:14,_ZNSt12_Vector_baseINSt7__cxx114listIiSaIiEEESaIS3_EED2Ev
FN:678,_ZNSt6vectorINSt7__cxx114listIiSaIiEEESaIS3_EED2Ev
FNDA:14,_ZNSt6vectorINSt7__cxx114listIiSaIiEEESaIS3_EED2Ev
FN:937,_ZNSt6vectorINSt7__cxx114listIiSaIiEEESaIS3_EE6resizeEm
FNDA:14,_ZNSt6vectorINSt7__cxx114listIiSaIiEEESaIS3_EE6resizeEm
FN:1187,_ZNSt6vectorIiSaIiEE9push_backERKi
FNDA:10,_ZNSt6vectorIiSaIiEE9push_backERKi
FN:1756,_ZNKSt6vectorIiSaIiEE12_M_check_lenEmPKc
FNDA:8,_ZNKSt6vectorIiSaIiEE12_M_check_lenEmPKc
FN:1756,_ZNKSt6vectorINSt7__cxx114listIiSaIiEEESaIS3_EE12_M_check_lenEmPKc
FNDA:14,_ZNKSt6vectorINSt7__cxx114listIiSaIiEEESaIS3_EE12_M_check_lenEmPKc
FN:1792,_ZNSt6vectorINSt7__cxx114listIiSaIiEEESaIS3_EE15_M_erase_at_endEPS3_
FNDA:0,_ZNSt6vectorINSt7__cxx114listIiSaIiEEESaIS3_EE15_M_erase_at_endEPS3_
DA:97,16
DA:98,16
DA:277,14
DA:333,2
DA:336,2
DA:337,2
DA:333,14
DA:336,14
DA:337,14
DA:346,22
DA:353,38
DA:678,14
DA:680,14
DA:683,16
DA:919,14
DA:937,14
DA:939,14
DA:940,14
DA:941,0
DA:942,0
DA:943,14
DA:1046,97
DA:1064,62
DA:1187,10
DA:1189,10
DA:1194,2
DA:1198,8
DA:1199,10
DA:1756,8
DA:1758,8
DA:1759,0
DA:1761,8
DA:1762,8
DA:1756,14
DA:1758,14
DA:1759,0
DA:1761,14
DA:1762,14
DA:1792,0
DA:1794,0
DA:1798,0
DA:1801,0
end_of_record
SF:/usr/include/c++/11/bits/locale_facets.h
FN:875,_ZNKSt5ctypeIcE5widenEc
FNDA:37,_ZNKSt5ctypeIcE5widenEc
FN:1087,_ZNKSt5ctypeIcE8do_widenEc
FNDA:0,_ZNKSt5ctypeIcE8do_widenEc
DA:875,37
DA:877,37
DA:878,37
DA:879,0
DA:880,0
DA:1087,0
DA:1088,0
end_of_record
SF:/usr/include/c++/11/bits/stl_deque.h
FN:208,_ZNSt15_Deque_iteratorIiRiPiEmmEv
FNDA:12,_ZNSt15_Deque_iteratorIiRiPiEmmEv
FN:353,_ZStmiRKSt15_Deque_iteratorIiRiPiES4_
FNDA:0,_ZStmiRKSt15_Deque_iteratorIiRiPiES4_
FN:437,_ZNSt11_Deque_baseIiSaIiEEC2Ev
FNDA:2,_ZNSt11_Deque_baseIiSaIiEEC2Ev
FN:596,_ZNSt11_Deque_baseIiSaIiEED2Ev
FNDA:2,_ZNSt11_Deque_baseIiSaIiEED2Ev
FN:617,_ZNSt11_Deque_baseIiSaIiEE17_M_initialize_mapEm
FNDA:2,_ZNSt11_Deque_baseIiSaIiEE17_M_initialize_mapEm
FN:656,_ZNSt11_Deque_baseIiSaIiEE15_M_create_nodesEPPiS3_
FNDA:2,_ZNSt11_Deque_baseIiSaIiEE15_M_create_nodesEPPiS3_
FN:1427,_ZNSt5dequeIiSaIiEE4backEv
FNDA:12,_ZNSt5dequeIiSaIiEE4backEv
FN:1496,_ZNSt5dequeIiSaIiEE9push_backERKi
FNDA:8,_ZNSt5dequeIiSaIiEE9push_backERKi
FN:1555,_ZNSt5dequeIiSaIiEE8pop_backEv
FNDA:10,_ZNSt5dequeIiSaIiEE8pop_backEv
FN:2126,_ZNSt5dequeIiSaIiEE22_M_reserve_map_at_backEm
FNDA:0,_ZNSt5dequeIiSaIiEE22_M_reserve_map_at_backEm
DA:151,2
DA:152,2
DA:169,12
DA:170,12
DA:181,12
DA:208,12
DA:210,12
DA:212,0
DA:213,0
DA:215,12
DA:216,12
DA:262,2
DA:263,2
DA:264,0
DA:269,20
DA:353,0
DA:356,0
DA:357,0
DA:358,0
DA:437,2
DA:439,4
DA:495,2
DA:496,2
DA:562,2
DA:584,2
DA:596,2
DA:599,2
DA:601,2
DA:602,2
DA:603,2
DA:605,2
DA:617,2
DA:620,2
DA:623,4
DA:624,2
DA:625,2
DA:632,2
DA:633,2
DA:634,2
DA:637,2
DA:638,0
DA:640,0
DA:641,0
DA:642,0
DA:643,0
DA:647,2
DA:648,2
DA:649,2
DA:650,2
DA:651,2
DA:652,2
DA:656,2
DA:662,4
DA:663,2
DA:665,0
DA:668,0
DA:670,2
DA:678,4
DA:679,2
DA:834,2
DA:1007,2
DA:1234,0
DA:1427,12
DA:1431,12
DA:1432,12
DA:1496,8
DA:1498,8
DA:1499,8
DA:1503,8
DA:1506,0
DA:1507,8
DA:1512,2
DA:1555,10
DA:1558,10
DA:1559,10
DA:1561,10
DA:1566,0
DA:1567,10
DA:2126,0
DA:2128,0
DA:2129,0
DA:2130,0
DA:2131,0
end_of_record
SF:/home/orel/OS_course/OS_EX4/Graph.cpp
FN:8,_ZN5GraphC2Ei
FNDA:14,_ZN5GraphC2Ei
FN:13,_ZN5Graph7addEdgeEii
FNDA:39,_ZN5Graph7addEdgeEii
FN:21,_ZNK5Graph11getVerticesEv
FNDA:0,_ZNK5Graph11getVerticesEv
FN:26,_ZNK5Graph9getDegreeEi
FNDA:0,_ZNK5Graph9getDegreeEi
FN:31,_ZNK5Graph12displayGraphEv
FNDA:9,_ZNK5Graph12displayGraphEv
FN:41,_ZN5Graph10isEulerianEv
FNDA:11,_ZN5Graph10isEulerianEv
FN:51,_ZN5Graph17printEulerCircuitEv
FNDA:2,_ZN5Graph17printEulerCircuitEv
DA:8,14
DA:9,14
DA:10,14
DA:13,39
DA:14,39
DA:15,39
DA:16,32
DA:18,39
DA:21,0
DA:22,0
DA:26,0
DA:27,27
DA:31,9
DA:32,44
DA:33,35
DA:34,101
DA:35,66
DA:38,9
DA:41,11
DA:42,31
DA:43,27
DA:51,2
DA:52,2
DA:53,0
DA:54,0
DA:57,2
DA:61,2
DA:62,2
DA:64,20
DA:65,18
DA:67,8
DA:69,8
DA:70,8
DA:72,10
DA:73,10
DA:79,2
DA:80,12
DA:81,10
DA:82,2
end_of_record
TN:
SF:/usr/include/c++/11/bits/locale_facets.h
FN:875,_ZNKSt5ctypeIcE5widenEc
FNDA:44,_ZNKSt5ctypeIcE5widenEc
FN:1087,_ZNKSt5ctypeIcE8do_widenEc
FNDA:18,_ZNKSt5ctypeIcE8do_widenEc
DA:875,44
DA:877,44
DA:878,26
DA:879,18
DA:880,18
DA:1087,18
DA:1088,18
end_of_record
SF:/usr/include/c++/11/bits/list.tcc
FN:66,_ZNSt7__cxx1110_List_baseIiSaIiEE8_M_clearEv
FNDA:0,_ZNSt7__cxx1110_List_baseIiSaIiEE8_M_clearEv
DA:66,0
DA:70,0
DA:71,0
DA:74,0
DA:83,0
end_of_record
SF:/usr/include/c++/11/bits/stl_vector.h
FN:333,_ZNSt12_Vector_baseINSt7__cxx114listIiSaIiEEESaIS3_EED2Ev
FNDA:0,_ZNSt12_Vector_baseINSt7__cxx114listIiSaIiEEESaIS3_EED2Ev
FN:678,_ZNSt6vectorINSt7__cxx114listIiSaIiEEESaIS3_EED2Ev
FNDA:0,_ZNSt6vectorINSt7__cxx114listIiSaIiEEESaIS3_EED2Ev
DA:333,0
DA:336,0
DA:337,0
DA:353,0
DA:678,0
DA:680,0
DA:683,0
end_of_record
SF:/usr/include/c++/11/bits/stl_construct.h
DA:162,0
end_of_record
SF:/home/orel/OS_course/OS_EX4/RandomGraph.cpp
FN:6,_Z19generateRandomGraphR5Graphiii
FNDA:5,_Z19generateRandomGraphR5Graphiii
FN:22,main
FNDA:18,main
DA:6,5
DA:7,5
DA:9,26
DA:10,21
DA:11,21
DA:14,40
DA:15,19
DA:18,21
DA:20,5
DA:22,18
DA:26,18
DA:27,18
DA:29,18
DA:30,18
DA:33,18
DA:34,3
DA:35,3
DA:38,15
DA:39,1
DA:40,1
DA:44,14
DA:47,14
DA:48,14
DA:50,14
DA:52,8
DA:53,26
DA:55,22
DA:56,22
DA:59,22
DA:60,4
DA:61,4
DA:64,18
DA:66,6
DA:68,5
DA:69,5
DA:71,5
DA:73,1
DA:78,9
DA:79,9
DA:82,9
DA:83,9
DA:84,2
DA:85,2
DA:87,7
end_of_record
SF:/home/orel/OS_course/OS_EX4/Graph.hpp
DA:7,14
end_of_record
SF:/usr/include/c++/11/iostream
end_of_record
SF:/usr/include/c++/11/bits/stl_list.h
DA:447,0
DA:500,0
DA:828,0
end_of_record
SF:/usr/include/c++/11/ext/new_allocator.h
DA:145,0
DA:168,0
end_of_record
SF:/usr/include/c++/11/bits/alloc_traits.h
DA:496,0
end_of_record
SF:/usr/include/c++/11/ostream
DA:113,44
end_of_record
